target datalayout = "e-m:e-p270:32:32-p271:32:32-p272:64:64-i64:64-i128:128-f80:128-n8:16:32:64-S128"
target triple = "x86_64-unknown-linux-gnu"

%struct.QEMUSGList = type { ptr, i32, i32, i64, ptr, ptr }

; Function Attrs: nounwind sspstrong uwtable
define dso_local void @qemu_sglist_init(ptr noundef %qsg, ptr noundef %dev, i32 noundef %alloc_hint, ptr noundef %as) #0 {
entry:
  %qsg.addr = alloca ptr, align 8
  %dev.addr = alloca ptr, align 8
  %alloc_hint.addr = alloca i32, align 4
  %as.addr = alloca ptr, align 8
  store ptr %qsg, ptr %qsg.addr, align 8
  store ptr %dev, ptr %dev.addr, align 8
  store i32 %alloc_hint, ptr %alloc_hint.addr, align 4
  store ptr %as, ptr %as.addr, align 8
  %0 = load i32, ptr %alloc_hint.addr, align 4
  %conv = sext i32 %0 to i64
  %call = call noalias ptr @g_malloc_n(i64 noundef %conv, i64 noundef 16) #9
  %1 = load ptr, ptr %qsg.addr, align 8
  %sg = getelementptr inbounds %struct.QEMUSGList, ptr %1, i32 0, i32 0
  store ptr %call, ptr %sg, align 8
  %2 = load ptr, ptr %qsg.addr, align 8
  %nsg = getelementptr inbounds %struct.QEMUSGList, ptr %2, i32 0, i32 1
  store i32 0, ptr %nsg, align 8
  %3 = load i32, ptr %alloc_hint.addr, align 4
  %4 = load ptr, ptr %qsg.addr, align 8
  %nalloc = getelementptr inbounds %struct.QEMUSGList, ptr %4, i32 0, i32 2
  store i32 %3, ptr %nalloc, align 4
  %5 = load ptr, ptr %qsg.addr, align 8
  %size = getelementptr inbounds %struct.QEMUSGList, ptr %5, i32 0, i32 3
  store i64 0, ptr %size, align 8
  %6 = load ptr, ptr %as.addr, align 8
  %7 = load ptr, ptr %qsg.addr, align 8
  %as1 = getelementptr inbounds %struct.QEMUSGList, ptr %7, i32 0, i32 5
  store ptr %6, ptr %as1, align 8
  %8 = load ptr, ptr %dev.addr, align 8
  %9 = load ptr, ptr %qsg.addr, align 8
  %dev2 = getelementptr inbounds %struct.QEMUSGList, ptr %9, i32 0, i32 4
  store ptr %8, ptr %dev2, align 8
  %10 = load ptr, ptr %dev.addr, align 8
  %call3 = call ptr @object_ref(ptr noundef %10)
  ret void
}