; Function Attrs: nounwind sspstrong uwtable
define dso_local void @qemu_sglist_init(ptr noundef writeonly captures(none) initializes((0, 40)) %qsg, ptr noundef %dev, i32 noundef %alloc_hint, ptr noundef %as) local_unnamed_addr #0 {
entry:
  %conv = sext i32 %alloc_hint to i64
  %call = tail call noalias ptr @g_malloc_n(i64 noundef %conv, i64 noundef 16) #11
  store ptr %call, ptr %qsg, align 8
  %nsg = getelementptr inbounds nuw i8, ptr %qsg, i64 8
  store i32 0, ptr %nsg, align 8
  %nalloc = getelementptr inbounds nuw i8, ptr %qsg, i64 12
  store i32 %alloc_hint, ptr %nalloc, align 4
  %size = getelementptr inbounds nuw i8, ptr %qsg, i64 16
  store i64 0, ptr %size, align 8
  %as1 = getelementptr inbounds nuw i8, ptr %qsg, i64 32
  store ptr %as, ptr %as1, align 8
  %dev2 = getelementptr inbounds nuw i8, ptr %qsg, i64 24
  store ptr %dev, ptr %dev2, align 8
  %call3 = tail call ptr @object_ref(ptr noundef %dev) #10
  ret void
}